target datalayout = "e-m:e-p270:32:32-p271:32:32-p272:64:64-i64:64-i128:128-f80:128-n8:16:32:64-S128"
target triple = "x86_64-pc-linux-gnu"

%struct.slurm_conf_t = type { i64, ptr, i16, ptr, ptr, ptr, ptr, ptr, i16, ptr, ptr, ptr, ptr, ptr, ptr, ptr, i16, ptr, ptr, ptr, ptr, i16, ptr, ptr, ptr, i64, ptr, ptr, ptr, ptr, i16, ptr, ptr, i16, i32, ptr, i32, ptr, i32, i32, ptr, ptr, i64, i64, ptr, i16, i16, ptr, i32, i32, ptr, i32, ptr, i32, i16, i16, i16, ptr, i16, i16, ptr, ptr, i32, i16, i16, ptr, i32, i16, ptr, ptr, ptr, ptr, i16, ptr, ptr, ptr, ptr, i32, ptr, ptr, ptr, ptr, i16, i16, ptr, i32, i32, i32, i16, i16, ptr, ptr, i16, ptr, ptr, i32, i32, i32, i32, i32, i64, i32, i32, i16, ptr, ptr, i32, ptr, ptr, ptr, i16, i32, ptr, ptr, i16, ptr, ptr, i32, i16, ptr, ptr, ptr, ptr, i32, i32, i16, i16, i32, ptr, i16, ptr, i32, i32, i32, i32, i32, i32, ptr, i16, ptr, ptr, i32, i16, ptr, i32, i16, i16, ptr, ptr, ptr, i16, ptr, ptr, ptr, ptr, i16, i16, ptr, i16, ptr, i16, ptr, i16, ptr, i16, ptr, ptr, ptr, ptr, i16, ptr, ptr, ptr, i32, ptr, i32, ptr, ptr, i16, ptr, ptr, i32, i16, ptr, ptr, i16, i16, ptr, i16, ptr, ptr, ptr, i32, ptr, i16, i16, ptr, ptr, ptr, ptr, ptr, ptr, ptr, ptr, i16, i32, i16, ptr, ptr, ptr, ptr, i32, ptr, ptr, ptr, i16, ptr, ptr, ptr, i16, ptr, i16, ptr, i16, i16, ptr }

@plugin_type = dso_local constant [11 x i8] c"cred/munge\00", align 1
@slurm_conf = dso_local global %struct.slurm_conf_t zeroinitializer, align 8
@.str.10 = private unnamed_addr constant [47 x i8] c"If munged is up, restart with --num-threads=10\00", align 1
@.str.14 = private unnamed_addr constant [47 x i8] c"%s: %s: Munge decode failed: %s (retrying ...)\00", align 1
@__func__._decode = private unnamed_addr constant [8 x i8] c"_decode\00", align 1
@.str.15 = private unnamed_addr constant [60 x i8] c"%s: %s: We had a replayed credential, but this is expected.\00", align 1
@.str.16 = private unnamed_addr constant [42 x i8] c"%s: Unexpected uid (%u) != Slurm uid (%u)\00", align 1

; Function Attrs: nounwind uwtable
define internal i32 @_decode(ptr noundef %0, i1 noundef zeroext %1, ptr noundef %2, ptr noundef %3) #0 {
  %5 = alloca i32, align 4
  %6 = alloca ptr, align 8
  %7 = alloca i8, align 1
  %8 = alloca ptr, align 8
  %9 = alloca ptr, align 8
  %10 = alloca i32, align 4
  %11 = alloca i32, align 4
  %12 = alloca i32, align 4
  %13 = alloca ptr, align 8
  %14 = alloca i32, align 4
  %15 = alloca i32, align 4
  %16 = alloca i32, align 4
  %17 = alloca ptr, align 8
  %18 = alloca i32, align 4
  %19 = alloca i32, align 4
  %20 = alloca i64, align 8
  store ptr %0, ptr %6, align 8
  %21 = zext i1 %1 to i8
  store i8 %21, ptr %7, align 1
  store ptr %2, ptr %8, align 8
  store ptr %3, ptr %9, align 8
  call void @llvm.lifetime.start.p0(i64 4, ptr %10) #5
  store i32 20, ptr %10, align 4
  call void @llvm.lifetime.start.p0(i64 4, ptr %11) #5
  call void @llvm.lifetime.start.p0(i64 4, ptr %12) #5
  call void @llvm.lifetime.start.p0(i64 8, ptr %13) #5
  store ptr null, ptr %13, align 8
  call void @llvm.lifetime.start.p0(i64 4, ptr %14) #5
  call void @llvm.lifetime.start.p0(i64 4, ptr %15) #5
  store i32 0, ptr %15, align 4
  call void @llvm.lifetime.start.p0(i64 4, ptr %16) #5
  call void @llvm.lifetime.start.p0(i64 8, ptr %17) #5
  %22 = call ptr @_munge_ctx_create()
  store ptr %22, ptr %17, align 8
  %23 = load ptr, ptr %17, align 8
  %24 = icmp ne ptr %23, null
  br i1 %24, label %26, label %25

25:                                               ; preds = %4
  store i32 -1, ptr %5, align 4
  store i32 1, ptr %18, align 4
  br label %117

26:                                               ; preds = %4
  br label %27

27:                                               ; preds = %52, %26
  %28 = load ptr, ptr %6, align 8
  %29 = load ptr, ptr %17, align 8
  %30 = call i32 @munge_decode(ptr noundef %28, ptr noundef %29, ptr noundef %13, ptr noundef %14, ptr noundef %11, ptr noundef %12)
  store i32 %30, ptr %16, align 4
  %31 = load i32, ptr %16, align 4
  %32 = icmp ne i32 %31, 0
  br i1 %32, label %33, label %79

33:                                               ; preds = %27
  %34 = load i32, ptr %16, align 4
  %35 = icmp eq i32 %34, 6
  br i1 %35, label %36, label %54

36:                                               ; preds = %33
  %37 = load i32, ptr %10, align 4
  %38 = add nsw i32 %37, -1
  store i32 %38, ptr %10, align 4
  %39 = icmp ne i32 %37, 0
  br i1 %39, label %40, label %54

40:                                               ; preds = %36
  br label %41

41:                                               ; preds = %40
  br label %42

42:                                               ; preds = %41
  %43 = call i32 @slurm_get_log_level()
  %44 = icmp sge i32 %43, 5
  br i1 %44, label %45, label %48

45:                                               ; preds = %42
  %46 = load ptr, ptr %17, align 8
  %47 = call ptr @munge_ctx_strerror(ptr noundef %46)
  call void (i32, ptr, ...) @slurm_log_var(i32 noundef 5, ptr noundef @.str.14, ptr noundef @plugin_type, ptr noundef @__func__._decode, ptr noundef %47)
  br label %48

48:                                               ; preds = %45, %42
  br label %49

49:                                               ; preds = %48
  br label %50

50:                                               ; preds = %49
  br label %51

51:                                               ; preds = %50
  br label %52

52:                                               ; preds = %51
  %53 = call i32 @usleep(i32 noundef 100000)
  br label %27

54:                                               ; preds = %36, %33
  %55 = load i32, ptr %16, align 4
  %56 = icmp eq i32 %55, 6
  br i1 %56, label %57, label %59

57:                                               ; preds = %54
  %58 = call i32 (ptr, ...) @slurm_error(ptr noundef @.str.10)
  br label %59

59:                                               ; preds = %57, %54
  %60 = load i32, ptr %16, align 4
  %61 = icmp ne i32 %60, 17
  br i1 %61, label %62, label %64

62:                                               ; preds = %59
  %63 = load i32, ptr %16, align 4
  store i32 %63, ptr %15, align 4
  br label %109

64:                                               ; preds = %59
  %65 = load i8, ptr %7, align 1, !range !8, !noundef !9
  %66 = trunc i8 %65 to i1
  br i1 %66, label %68, label %67

67:                                               ; preds = %64
  store i32 5003, ptr %15, align 4
  br label %109

68:                                               ; preds = %64
  br label %69

69:                                               ; preds = %68
  br label %70

70:                                               ; preds = %69
  %71 = call i32 @slurm_get_log_level()
  %72 = icmp sge i32 %71, 6
  br i1 %72, label %73, label %74

73:                                               ; preds = %70
  call void (i32, ptr, ...) @slurm_log_var(i32 noundef 6, ptr noundef @.str.15, ptr noundef @plugin_type, ptr noundef @__func__._decode)
  br label %74

74:                                               ; preds = %73, %70
  br label %75

75:                                               ; preds = %74
  br label %76

76:                                               ; preds = %75
  br label %77

77:                                               ; preds = %76
  br label %78

78:                                               ; preds = %77
  br label %79

79:                                               ; preds = %78, %27
  %80 = load i32, ptr %11, align 4
  %81 = load i32, ptr getelementptr inbounds nuw (%struct.slurm_conf_t, ptr @slurm_conf, i32 0, i32 173), align 8
  %82 = icmp ne i32 %80, %81
  br i1 %82, label %83, label %90

83:                                               ; preds = %79
  %84 = load i32, ptr %11, align 4
  %85 = icmp ne i32 %84, 0
  br i1 %85, label %86, label %90

86:                                               ; preds = %83
  %87 = load i32, ptr %11, align 4
  %88 = load i32, ptr getelementptr inbounds nuw (%struct.slurm_conf_t, ptr @slurm_conf, i32 0, i32 173), align 8
  %89 = call i32 (ptr, ...) @slurm_error(ptr noundef @.str.16, ptr noundef @plugin_type, i32 noundef %87, i32 noundef %88)
  store i32 5002, ptr %15, align 4
  br label %109

90:                                               ; preds = %83, %79
  %91 = load ptr, ptr %9, align 8
  %92 = icmp ne ptr %91, null
  br i1 %92, label %93, label %103

93:                                               ; preds = %90
  call void @llvm.lifetime.start.p0(i64 4, ptr %19) #5
  call void @llvm.lifetime.start.p0(i64 8, ptr %20) #5
  %94 = load ptr, ptr %17, align 8
  %95 = call i32 (ptr, i32, ...) @munge_ctx_get(ptr noundef %94, i32 noundef 4, ptr noundef %19)
  %96 = load ptr, ptr %17, align 8
  %97 = call i32 (ptr, i32, ...) @munge_ctx_get(ptr noundef %96, i32 noundef 6, ptr noundef %20)
  %98 = load i64, ptr %20, align 8
  %99 = load i32, ptr %19, align 4
  %100 = sext i32 %99 to i64
  %101 = add nsw i64 %98, %100
  %102 = load ptr, ptr %9, align 8
  store i64 %101, ptr %102, align 8
  call void @llvm.lifetime.end.p0(i64 8, ptr %20) #5
  call void @llvm.lifetime.end.p0(i64 4, ptr %19) #5
  br label %103

103:                                              ; preds = %93, %90
  %104 = load ptr, ptr %17, align 8
  call void @munge_ctx_destroy(ptr noundef %104)
  %105 = load ptr, ptr %13, align 8
  %106 = load i32, ptr %14, align 4
  %107 = call ptr @slurm_create_buf(ptr noundef %105, i32 noundef %106)
  %108 = load ptr, ptr %8, align 8
  store ptr %107, ptr %108, align 8
  store i32 0, ptr %5, align 4
  store i32 1, ptr %18, align 4
  br label %117

109:                                              ; preds = %86, %67, %62
  %110 = load ptr, ptr %13, align 8
  %111 = icmp ne ptr %110, null
  br i1 %111, label %112, label %114

112:                                              ; preds = %109
  %113 = load ptr, ptr %13, align 8
  call void @free(ptr noundef %113) #5
  br label %114

114:                                              ; preds = %112, %109
  %115 = load ptr, ptr %17, align 8
  call void @munge_ctx_destroy(ptr noundef %115)
  %116 = load i32, ptr %15, align 4
  store i32 %116, ptr %5, align 4
  store i32 1, ptr %18, align 4
  br label %117

117:                                              ; preds = %114, %103, %25
  call void @llvm.lifetime.end.p0(i64 8, ptr %17) #5
  call void @llvm.lifetime.end.p0(i64 4, ptr %16) #5
  call void @llvm.lifetime.end.p0(i64 4, ptr %15) #5
  call void @llvm.lifetime.end.p0(i64 4, ptr %14) #5
  call void @llvm.lifetime.end.p0(i64 8, ptr %13) #5
  call void @llvm.lifetime.end.p0(i64 4, ptr %12) #5
  call void @llvm.lifetime.end.p0(i64 4, ptr %11) #5
  call void @llvm.lifetime.end.p0(i64 4, ptr %10) #5
  %118 = load i32, ptr %5, align 4
  ret i32 %118
}