; Function Attrs: nounwind uwtable
define internal fastcc range(i32 18, 17) i32 @_decode(ptr noundef %0, i1 noundef zeroext %1, ptr noundef nonnull writeonly captures(none) %2, ptr noundef writeonly captures(address_is_null) %3) unnamed_addr #0 {
  %5 = alloca i32, align 4
  %6 = alloca i32, align 4
  %7 = alloca ptr, align 8
  %8 = alloca i32, align 4
  %9 = alloca i32, align 4
  %10 = alloca i64, align 8
  call void @llvm.lifetime.start.p0(i64 4, ptr nonnull %5) #7
  call void @llvm.lifetime.start.p0(i64 4, ptr nonnull %6) #7
  call void @llvm.lifetime.start.p0(i64 8, ptr nonnull %7) #7
  store ptr null, ptr %7, align 8
  call void @llvm.lifetime.start.p0(i64 4, ptr nonnull %8) #7
  %11 = tail call fastcc ptr @_munge_ctx_create()
  %.not = icmp eq ptr %11, null
  br i1 %.not, label %49, label %.preheader

.preheader:                                       ; preds = %4, %20
  %.020 = phi i32 [ %14, %20 ], [ 20, %4 ]
  %12 = call i32 @munge_decode(ptr noundef %0, ptr noundef nonnull %11, ptr noundef nonnull %7, ptr noundef nonnull %8, ptr noundef nonnull %5, ptr noundef nonnull %6) #7
  switch i32 %12, label %.critedge [
    i32 0, label %.loopexit
    i32 6, label %13
  ]

13:                                               ; preds = %.preheader
  %14 = add nsw i32 %.020, -1
  %.not28 = icmp eq i32 %.020, 0
  br i1 %.not28, label %.critedge.thread, label %15

15:                                               ; preds = %13
  %16 = call i32 @slurm_get_log_level() #7
  %17 = icmp sgt i32 %16, 4
  br i1 %17, label %18, label %20

18:                                               ; preds = %15
  %19 = call ptr @munge_ctx_strerror(ptr noundef nonnull %11) #7
  call void (i32, ptr, ...) @slurm_log_var(i32 noundef 5, ptr noundef nonnull @.str.14, ptr noundef nonnull @plugin_type, ptr noundef nonnull @__func__._decode, ptr noundef %19) #7
  br label %20

20:                                               ; preds = %18, %15
  %21 = call i32 @usleep(i32 noundef 100000) #7
  br label %.preheader

.critedge.thread:                                 ; preds = %13
  %22 = call i32 (ptr, ...) @slurm_error(ptr noundef nonnull @.str.10) #7
  br label %45

.critedge:                                        ; preds = %.preheader
  %.not29 = icmp eq i32 %12, 17
  %brmerge.not = and i1 %1, %.not29
  %.mux = select i1 %.not29, i32 5003, i32 %12
  br i1 %brmerge.not, label %23, label %45

23:                                               ; preds = %.critedge
  %24 = call i32 @slurm_get_log_level() #7
  %25 = icmp sgt i32 %24, 5
  br i1 %25, label %26, label %.loopexit

26:                                               ; preds = %23
  call void (i32, ptr, ...) @slurm_log_var(i32 noundef 6, ptr noundef nonnull @.str.15, ptr noundef nonnull @plugin_type, ptr noundef nonnull @__func__._decode) #7
  br label %.loopexit

.loopexit:                                        ; preds = %.preheader, %23, %26
  %27 = load i32, ptr %5, align 4
  %28 = load i32, ptr getelementptr inbounds nuw (i8, ptr @slurm_conf, i64 1152), align 8
  %29 = icmp ne i32 %27, %28
  %30 = icmp ne i32 %27, 0
  %or.cond = and i1 %30, %29
  br i1 %or.cond, label %31, label %33

31:                                               ; preds = %.loopexit
  %32 = call i32 (ptr, ...) @slurm_error(ptr noundef nonnull @.str.16, ptr noundef nonnull @plugin_type, i32 noundef %27, i32 noundef %28) #7
  br label %45

33:                                               ; preds = %.loopexit
  %.not30 = icmp eq ptr %3, null
  br i1 %.not30, label %41, label %34

34:                                               ; preds = %33
  call void @llvm.lifetime.start.p0(i64 4, ptr nonnull %9) #7
  call void @llvm.lifetime.start.p0(i64 8, ptr nonnull %10) #7
  %35 = call i32 (ptr, i32, ...) @munge_ctx_get(ptr noundef nonnull %11, i32 noundef 4, ptr noundef nonnull %9) #7
  %36 = call i32 (ptr, i32, ...) @munge_ctx_get(ptr noundef nonnull %11, i32 noundef 6, ptr noundef nonnull %10) #7
  %37 = load i64, ptr %10, align 8
  %38 = load i32, ptr %9, align 4
  %39 = sext i32 %38 to i64
  %40 = add nsw i64 %37, %39
  store i64 %40, ptr %3, align 8
  call void @llvm.lifetime.end.p0(i64 8, ptr nonnull %10) #7
  call void @llvm.lifetime.end.p0(i64 4, ptr nonnull %9) #7
  br label %41

41:                                               ; preds = %34, %33
  call void @munge_ctx_destroy(ptr noundef nonnull %11) #7
  %42 = load ptr, ptr %7, align 8
  %43 = load i32, ptr %8, align 4
  %44 = call ptr @slurm_create_buf(ptr noundef %42, i32 noundef %43) #7
  store ptr %44, ptr %2, align 8
  br label %49

45:                                               ; preds = %.critedge.thread, %.critedge, %31
  %.021 = phi i32 [ 5002, %31 ], [ %.mux, %.critedge ], [ 6, %.critedge.thread ]
  %46 = load ptr, ptr %7, align 8
  %.not31 = icmp eq ptr %46, null
  br i1 %.not31, label %48, label %47

47:                                               ; preds = %45
  call void @free(ptr noundef nonnull %46) #7
  br label %48

48:                                               ; preds = %47, %45
  call void @munge_ctx_destroy(ptr noundef nonnull %11) #7
  br label %49

49:                                               ; preds = %4, %48, %41
  %.0 = phi i32 [ %.021, %48 ], [ 0, %41 ], [ -1, %4 ]
  call void @llvm.lifetime.end.p0(i64 4, ptr nonnull %8) #7
  call void @llvm.lifetime.end.p0(i64 8, ptr nonnull %7) #7
  call void @llvm.lifetime.end.p0(i64 4, ptr nonnull %6) #7
  call void @llvm.lifetime.end.p0(i64 4, ptr nonnull %5) #7
  ret i32 %.0
}